target datalayout = "e-m:e-p270:32:32-p271:32:32-p272:64:64-i64:64-i128:128-f80:128-n8:16:32:64-S128"
target triple = "x86_64-pc-linux-gnu"

%"class.llvm::StringRef" = type { ptr, i64 }
%"struct.llvm::CountSumOrPercent" = type { i64, double, %"struct.std::array" }
%"struct.std::array" = type { [3 x double] }
%"struct.llvm::OverlapStats" = type <{ %"struct.llvm::CountSumOrPercent", %"struct.llvm::CountSumOrPercent", %"struct.llvm::CountSumOrPercent", %"struct.llvm::CountSumOrPercent", %"struct.llvm::CountSumOrPercent", i32, [4 x i8], ptr, ptr, %"class.llvm::StringRef", i64, i8, [7 x i8] }>

; Function Attrs: mustprogress nounwind uwtable
define linkonce_odr hidden noundef nonnull align 8 dereferenceable(8) ptr @_ZNSt14__array_traitsIdLm3EE6_S_refERA3_Kdm(ptr noundef nonnull align 8 dereferenceable(24) %0, i64 noundef %1) #1 comdat align 2 {
  %3 = alloca ptr, align 8
  %4 = alloca i64, align 8
  store ptr %0, ptr %3, align 8
  store i64 %1, ptr %4, align 8
  %5 = load ptr, ptr %3, align 8
  %6 = load i64, ptr %4, align 8
  %7 = getelementptr inbounds [3 x double], ptr %5, i64 0, i64 %6
  ret ptr %7
}

; Function Attrs: mustprogress nounwind uwtable
define linkonce_odr hidden noundef nonnull align 8 dereferenceable(8) ptr @_ZNKSt5arrayIdLm3EEixEm(ptr noundef nonnull align 8 dereferenceable(24) %0, i64 noundef %1) #1 comdat align 2 {
  %3 = alloca ptr, align 8
  %4 = alloca i64, align 8
  store ptr %0, ptr %3, align 8
  store i64 %1, ptr %4, align 8
  %5 = load ptr, ptr %3, align 8
  %6 = getelementptr inbounds nuw %"struct.std::array", ptr %5, i32 0, i32 0
  %7 = load i64, ptr %4, align 8
  %8 = call noundef nonnull align 8 dereferenceable(8) ptr @_ZNSt14__array_traitsIdLm3EE6_S_refERA3_Kdm(ptr noundef nonnull align 8 dereferenceable(24) %6, i64 noundef %7) #2
  ret ptr %8
}

; Function Attrs: mustprogress nounwind uwtable
define linkonce_odr hidden noundef nonnull align 8 dereferenceable(8) ptr @_ZNSt5arrayIdLm3EEixEm(ptr noundef nonnull align 8 dereferenceable(24) %0, i64 noundef %1) #1 comdat align 2 {
  %3 = alloca ptr, align 8
  %4 = alloca i64, align 8
  store ptr %0, ptr %3, align 8
  store i64 %1, ptr %4, align 8
  %5 = load ptr, ptr %3, align 8
  %6 = getelementptr inbounds nuw %"struct.std::array", ptr %5, i32 0, i32 0
  %7 = load i64, ptr %4, align 8
  %8 = call noundef nonnull align 8 dereferenceable(8) ptr @_ZNSt14__array_traitsIdLm3EE6_S_refERA3_Kdm(ptr noundef nonnull align 8 dereferenceable(24) %6, i64 noundef %7) #2
  ret ptr %8
}

; Function Attrs: mustprogress nounwind uwtable
define dso_local void @_ZN4llvm12OverlapStats12addOneUniqueERKNS_17CountSumOrPercentE(ptr noundef nonnull align 8 dereferenceable(249) %0, ptr noundef nonnull align 8 dereferenceable(40) %1) #1 align 2 {
  %3 = alloca ptr, align 8
  %4 = alloca ptr, align 8
  %5 = alloca i32, align 4
  store ptr %0, ptr %3, align 8
  store ptr %1, ptr %4, align 8
  %6 = load ptr, ptr %3, align 8
  %7 = getelementptr inbounds nuw %"struct.llvm::OverlapStats", ptr %6, i32 0, i32 4
  %8 = getelementptr inbounds nuw %"struct.llvm::CountSumOrPercent", ptr %7, i32 0, i32 0
  %9 = load i64, ptr %8, align 8
  %10 = add i64 %9, 1
  store i64 %10, ptr %8, align 8
  %11 = load ptr, ptr %4, align 8
  %12 = getelementptr inbounds nuw %"struct.llvm::CountSumOrPercent", ptr %11, i32 0, i32 1
  %13 = load double, ptr %12, align 8
  %14 = getelementptr inbounds nuw %"struct.llvm::OverlapStats", ptr %6, i32 0, i32 1
  %15 = getelementptr inbounds nuw %"struct.llvm::CountSumOrPercent", ptr %14, i32 0, i32 1
  %16 = load double, ptr %15, align 8
  %17 = fdiv double %13, %16
  %18 = getelementptr inbounds nuw %"struct.llvm::OverlapStats", ptr %6, i32 0, i32 4
  %19 = getelementptr inbounds nuw %"struct.llvm::CountSumOrPercent", ptr %18, i32 0, i32 1
  %20 = load double, ptr %19, align 8
  %21 = fadd double %20, %17
  store double %21, ptr %19, align 8
  store i32 0, ptr %5, align 4
  br label %22

22:                                               ; preds = %55, %2
  %23 = load i32, ptr %5, align 4
  %24 = icmp ult i32 %23, 3
  br i1 %24, label %25, label %58

25:                                               ; preds = %22
  %26 = getelementptr inbounds nuw %"struct.llvm::OverlapStats", ptr %6, i32 0, i32 1
  %27 = getelementptr inbounds nuw %"struct.llvm::CountSumOrPercent", ptr %26, i32 0, i32 2
  %28 = load i32, ptr %5, align 4
  %29 = zext i32 %28 to i64
  %30 = call noundef nonnull align 8 dereferenceable(8) ptr @_ZNSt5arrayIdLm3EEixEm(ptr noundef nonnull align 8 dereferenceable(24) %27, i64 noundef %29) #2
  %31 = load double, ptr %30, align 8
  %32 = fcmp oge double %31, 1.000000e+00
  br i1 %32, label %33, label %54

33:                                               ; preds = %25
  %34 = load ptr, ptr %4, align 8
  %35 = getelementptr inbounds nuw %"struct.llvm::CountSumOrPercent", ptr %34, i32 0, i32 2
  %36 = load i32, ptr %5, align 4
  %37 = zext i32 %36 to i64
  %38 = call noundef nonnull align 8 dereferenceable(8) ptr @_ZNKSt5arrayIdLm3EEixEm(ptr noundef nonnull align 8 dereferenceable(24) %35, i64 noundef %37) #2
  %39 = load double, ptr %38, align 8
  %40 = getelementptr inbounds nuw %"struct.llvm::OverlapStats", ptr %6, i32 0, i32 1
  %41 = getelementptr inbounds nuw %"struct.llvm::CountSumOrPercent", ptr %40, i32 0, i32 2
  %42 = load i32, ptr %5, align 4
  %43 = zext i32 %42 to i64
  %44 = call noundef nonnull align 8 dereferenceable(8) ptr @_ZNSt5arrayIdLm3EEixEm(ptr noundef nonnull align 8 dereferenceable(24) %41, i64 noundef %43) #2
  %45 = load double, ptr %44, align 8
  %46 = fdiv double %39, %45
  %47 = getelementptr inbounds nuw %"struct.llvm::OverlapStats", ptr %6, i32 0, i32 4
  %48 = getelementptr inbounds nuw %"struct.llvm::CountSumOrPercent", ptr %47, i32 0, i32 2
  %49 = load i32, ptr %5, align 4
  %50 = zext i32 %49 to i64
  %51 = call noundef nonnull align 8 dereferenceable(8) ptr @_ZNSt5arrayIdLm3EEixEm(ptr noundef nonnull align 8 dereferenceable(24) %48, i64 noundef %50) #2
  %52 = load double, ptr %51, align 8
  %53 = fadd double %52, %46
  store double %53, ptr %51, align 8
  br label %54

54:                                               ; preds = %33, %25
  br label %55

55:                                               ; preds = %54
  %56 = load i32, ptr %5, align 4
  %57 = add i32 %56, 1
  store i32 %57, ptr %5, align 4
  br label %22, !llvm.loop !41

58:                                               ; preds = %22
  ret void
}