; Function Attrs: mustprogress nofree norecurse nosync nounwind memory(argmem: readwrite) uwtable
define dso_local void @_ZN4llvm12OverlapStats12addOneUniqueERKNS_17CountSumOrPercentE(ptr noundef nonnull align 8 captures(none) dereferenceable(249) %0, ptr noundef nonnull readonly align 8 captures(none) dereferenceable(40) %1) local_unnamed_addr #10 align 2 {
  %3 = getelementptr inbounds nuw i8, ptr %0, i64 160
  %4 = load i64, ptr %3, align 8
  %5 = add i64 %4, 1
  store i64 %5, ptr %3, align 8
  %6 = getelementptr inbounds nuw i8, ptr %1, i64 8
  %7 = load double, ptr %6, align 8
  %8 = getelementptr inbounds nuw i8, ptr %0, i64 48
  %9 = load double, ptr %8, align 8
  %10 = fdiv double %7, %9
  %11 = getelementptr inbounds nuw i8, ptr %0, i64 168
  %12 = load double, ptr %11, align 8
  %13 = fadd double %12, %10
  store double %13, ptr %11, align 8
  %14 = getelementptr inbounds nuw i8, ptr %0, i64 56
  %15 = getelementptr inbounds nuw i8, ptr %1, i64 16
  %16 = getelementptr inbounds nuw i8, ptr %0, i64 176
  br label %17

17:                                               ; preds = %2, %28
  %indvars.iv = phi i64 [ 0, %2 ], [ %indvars.iv.next, %28 ]
  %18 = getelementptr inbounds nuw [3 x double], ptr %14, i64 0, i64 %indvars.iv
  %19 = load double, ptr %18, align 8
  %20 = fcmp ult double %19, 1.000000e+00
  br i1 %20, label %28, label %21

21:                                               ; preds = %17
  %22 = getelementptr inbounds nuw [3 x double], ptr %15, i64 0, i64 %indvars.iv
  %23 = load double, ptr %22, align 8
  %24 = fdiv double %23, %19
  %25 = getelementptr inbounds nuw [3 x double], ptr %16, i64 0, i64 %indvars.iv
  %26 = load double, ptr %25, align 8
  %27 = fadd double %26, %24
  store double %27, ptr %25, align 8
  br label %28

28:                                               ; preds = %17, %21
  %indvars.iv.next = add nuw nsw i64 %indvars.iv, 1
  %exitcond.not = icmp eq i64 %indvars.iv.next, 3
  br i1 %exitcond.not, label %29, label %17, !llvm.loop !215

29:                                               ; preds = %28
  ret void
}